target datalayout = "e-m:e-p270:32:32-p271:32:32-p272:64:64-i64:64-i128:128-f80:128-n8:16:32:64-S128"
target triple = "x86_64-pc-linux-gnu"

%struct.redisServer = type { i32, i64, ptr, ptr, ptr, i32, i32, i32, i32, i32, ptr, ptr, ptr, ptr, ptr, i32, i32, i32, i32, i64, i32, i32, i32, i32, ptr, i32, i32, [41 x i8], i32, i64, i32, i32, i32, ptr, ptr, i32, i32, i64, ptr, ptr, ptr, ptr, [2 x i32], i32, i32, i32, i32, i32, i32, [16 x ptr], i32, ptr, ptr, i32, [8 x %struct.connListener], i32, %struct.connListener, ptr, ptr, ptr, ptr, ptr, ptr, ptr, ptr, ptr, ptr, i32, ptr, i32, ptr, [3 x %struct.pause_event], [256 x i8], ptr, i64, i32, i32, [128 x i32], i32, i32, i64, i32, i32, i32, i32, i32, i64, i64, i64, i64, i64, i64, i64, i64, i64, i64, double, i64, i64, i64, i64, i64, i64, i64, i64, i64, i64, i64, i64, i64, i64, i64, i64, i64, i64, i64, i64, i64, double, i64, i64, i64, i64, i64, ptr, i64, i64, i64, %struct.malloc_stats, i64, i64, i64, i64, i64, i64, i64, i64, i64, i64, i64, i64, double, [4 x i64], i64, i64, i64, i64, [128 x i64], [128 x i64], i64, i64, [7 x %struct.anon], i64, i64, i64, i64, i64, i64, [4 x %struct.durationStats], i32, i32, i32, i32, i32, i32, i32, i32, i32, i32, i32, i32, i64, i32, i32, i32, i32, i64, i64, i32, i32, i32, i32, i32, ptr, [3 x %struct.clientBufferLimitsConfig], i32, i32, i32, ptr, i32, i32, i32, i32, i32, i32, ptr, ptr, i32, i32, i64, i64, i64, i64, i64, i32, i32, ptr, i32, i32, i64, i64, i64, i64, i64, i32, i32, i64, i32, i32, i32, i32, i32, i32, i32, i32, ptr, i32, i64, i64, i64, i64, i32, ptr, i32, ptr, i32, i32, i32, i64, i64, i64, i64, i32, i32, i32, i32, i32, i32, ptr, i32, i32, ptr, i32, i32, i32, [2 x i32], i32, %struct.redisOpArray, i32, ptr, i32, ptr, i32, i32, i32, i32, i32, i32, i32, [41 x i8], [41 x i8], i64, i64, i64, i64, i32, i32, ptr, i64, i64, %struct.replDataBuf, i64, i64, i32, i32, i32, i32, i32, i32, i32, i32, i32, i64, ptr, i64, ptr, ptr, ptr, i32, i32, ptr, ptr, i32, i32, i32, i64, i64, i64, i64, ptr, ptr, i32, ptr, i64, i32, i32, i32, i64, i32, i32, i32, i32, ptr, i32, i32, [41 x i8], i64, i32, ptr, i32, i32, i64, i64, i32, i32, i32, i32, i32, i64, [3 x i32], i32, i32, i32, [10 x i32], ptr, ptr, i32, i64, ptr, ptr, i32, i32, i32, i32, i64, i64, i64, i64, i64, i64, i64, i64, i64, i64, i32, i32, i64, i64, i32, i64, i64, i64, i64, i64, ptr, ptr, i32, ptr, i32, i32, i32, i32, i64, i64, ptr, ptr, i32, i32, i32, i32, i32, ptr, ptr, ptr, i32, i32, i32, i32, i32, i32, i32, i64, i32, i32, i64, i32, i32, i32, i32, i32, i32, i32, i64, ptr, ptr, i64, ptr, i32, %struct.aclInfo, i32, i64, i32, i32, i32, %struct.redisTLSContextConfig, ptr, ptr, ptr, ptr, ptr, i64, i32, ptr, i32, i32, i32, i64, i32, ptr }
%struct.connListener = type { [16 x i32], i32, ptr, i32, i32, ptr, ptr }
%struct.pause_event = type { i32, i64 }
%struct.malloc_stats = type { i64, i64, i64, i64, i64, i64, i64, i64, i64, i64, i64 }
%struct.anon = type { i64, i64, [16 x i64], i32 }
%struct.durationStats = type { i64, i64, i64 }
%struct.clientBufferLimitsConfig = type { i64, i64, i64 }
%struct.redisOpArray = type { ptr, i32, i32 }
%struct.replDataBuf = type { ptr, i64, i64, i64, i64 }
%struct.aclInfo = type { i64, i64, i64, i64 }
%struct.redisTLSContextConfig = type { ptr, ptr, ptr, ptr, ptr, ptr, ptr, ptr, ptr, ptr, ptr, ptr, i32, i32, i32, i32 }
%struct.sharedObjectsStruct = type { ptr, ptr, ptr, ptr, ptr, ptr, ptr, ptr, [4 x ptr], [4 x ptr], [4 x ptr], [4 x ptr], ptr, ptr, ptr, ptr, ptr, ptr, ptr, ptr, ptr, ptr, ptr, ptr, ptr, ptr, ptr, ptr, ptr, ptr, ptr, ptr, ptr, ptr, ptr, ptr, ptr, ptr, ptr, ptr, ptr, ptr, ptr, ptr, ptr, ptr, ptr, ptr, ptr, ptr, ptr, ptr, ptr, ptr, ptr, ptr, ptr, ptr, ptr, ptr, ptr, ptr, ptr, ptr, ptr, ptr, ptr, ptr, ptr, ptr, ptr, ptr, ptr, ptr, ptr, ptr, ptr, ptr, ptr, ptr, ptr, ptr, ptr, ptr, ptr, ptr, ptr, ptr, [10 x ptr], [10000 x ptr], [32 x ptr], [32 x ptr], [32 x ptr], [32 x ptr], ptr, ptr }
%struct.client = type { i64, i64, ptr, i8, i8, i8, i8, i32, ptr, ptr, ptr, ptr, ptr, i64, i64, i32, ptr, i32, i32, ptr, i64, ptr, ptr, ptr, ptr, ptr, i32, i32, i64, ptr, i64, ptr, i64, i64, i64, i32, ptr, i64, i64, i32, i32, i32, i32, i64, i64, ptr, i64, i64, i64, i64, i64, i64, i64, i64, [41 x i8], i32, ptr, i32, i32, i64, %struct.multiState, %struct.blockingState, i64, ptr, ptr, ptr, ptr, ptr, ptr, ptr, ptr, ptr, ptr, ptr, ptr, ptr, ptr, i64, ptr, i64, i32, ptr, ptr, ptr, i64, %struct.listNode, i64, i64, i32, i64, ptr }
%struct.multiState = type { ptr, i32, i32, i32, i64, i32 }
%struct.blockingState = type { i32, i64, i32, ptr, i32, i32, i64, ptr, ptr, i64 }
%struct.listNode = type { ptr, ptr, ptr }
%struct.dict = type { ptr, [2 x ptr], [2 x i64], i64, i16, [2 x i8], i16, [0 x ptr] }
%struct.pubsubtype = type { i32, ptr, ptr, ptr, ptr, ptr, ptr }
%struct.redisObject = type { i32, i32, ptr }

@server = external global %struct.redisServer, align 8
@shared = external global %struct.sharedObjectsStruct, align 8
@.str.1 = private unnamed_addr constant [9 x i8] c"pubsub.c\00", align 1
@.str.3 = private unnamed_addr constant [11 x i8] c"de != NULL\00", align 1
@.str.4 = private unnamed_addr constant [34 x i8] c"dictDelete(clients, c) == DICT_OK\00", align 1

; Function Attrs: nounwind uwtable
define dso_local void @addReplyPubsubUnsubscribed(ptr noundef %0, ptr noundef %1, ptr noundef byval(%struct.pubsubtype) align 8 %2) #0 {
  %4 = alloca ptr, align 8
  %5 = alloca ptr, align 8
  %6 = alloca i64, align 8
  store ptr %0, ptr %4, align 8, !tbaa !5
  store ptr %1, ptr %5, align 8, !tbaa !33
  call void @llvm.lifetime.start.p0(i64 8, ptr %6) #8
  %7 = load ptr, ptr %4, align 8, !tbaa !5
  %8 = getelementptr inbounds nuw %struct.client, ptr %7, i32 0, i32 1
  %9 = load i64, ptr %8, align 8, !tbaa !34
  store i64 %9, ptr %6, align 8, !tbaa !30
  %10 = load ptr, ptr %4, align 8, !tbaa !5
  %11 = getelementptr inbounds nuw %struct.client, ptr %10, i32 0, i32 1
  %12 = load i64, ptr %11, align 8, !tbaa !34
  %13 = or i64 %12, 70368744177664
  store i64 %13, ptr %11, align 8, !tbaa !34
  %14 = load ptr, ptr %4, align 8, !tbaa !5
  %15 = getelementptr inbounds nuw %struct.client, ptr %14, i32 0, i32 7
  %16 = load i32, ptr %15, align 4, !tbaa !35
  %17 = icmp eq i32 %16, 2
  br i1 %17, label %18, label %21

18:                                               ; preds = %3
  %19 = load ptr, ptr %4, align 8, !tbaa !5
  %20 = load ptr, ptr getelementptr inbounds ([32 x ptr], ptr getelementptr inbounds nuw (%struct.sharedObjectsStruct, ptr @shared, i32 0, i32 90), i64 0, i64 3), align 8, !tbaa !33
  call void @addReply(ptr noundef %19, ptr noundef %20)
  br label %23

21:                                               ; preds = %3
  %22 = load ptr, ptr %4, align 8, !tbaa !5
  call void @addReplyPushLen(ptr noundef %22, i64 noundef 3)
  br label %23

23:                                               ; preds = %21, %18
  %24 = load ptr, ptr %4, align 8, !tbaa !5
  %25 = getelementptr inbounds nuw %struct.pubsubtype, ptr %2, i32 0, i32 5
  %26 = load ptr, ptr %25, align 8, !tbaa !42
  %27 = load ptr, ptr %26, align 8, !tbaa !33
  call void @addReply(ptr noundef %24, ptr noundef %27)
  %28 = load ptr, ptr %5, align 8, !tbaa !33
  %29 = icmp ne ptr %28, null
  br i1 %29, label %30, label %33

30:                                               ; preds = %23
  %31 = load ptr, ptr %4, align 8, !tbaa !5
  %32 = load ptr, ptr %5, align 8, !tbaa !33
  call void @addReplyBulk(ptr noundef %31, ptr noundef %32)
  br label %35

33:                                               ; preds = %23
  %34 = load ptr, ptr %4, align 8, !tbaa !5
  call void @addReplyNull(ptr noundef %34)
  br label %35

35:                                               ; preds = %33, %30
  %36 = load ptr, ptr %4, align 8, !tbaa !5
  %37 = getelementptr inbounds nuw %struct.pubsubtype, ptr %2, i32 0, i32 2
  %38 = load ptr, ptr %37, align 8, !tbaa !41
  %39 = load ptr, ptr %4, align 8, !tbaa !5
  %40 = call i32 %38(ptr noundef %39)
  %41 = sext i32 %40 to i64
  call void @addReplyLongLong(ptr noundef %36, i64 noundef %41)
  %42 = load i64, ptr %6, align 8, !tbaa !30
  %43 = and i64 %42, 70368744177664
  %44 = icmp ne i64 %43, 0
  br i1 %44, label %50, label %45

45:                                               ; preds = %35
  %46 = load ptr, ptr %4, align 8, !tbaa !5
  %47 = getelementptr inbounds nuw %struct.client, ptr %46, i32 0, i32 1
  %48 = load i64, ptr %47, align 8, !tbaa !34
  %49 = and i64 %48, -70368744177665
  store i64 %49, ptr %47, align 8, !tbaa !34
  br label %50

50:                                               ; preds = %45, %35
  call void @llvm.lifetime.end.p0(i64 8, ptr %6) #8
  ret void
}

; Function Attrs: nounwind uwtable
define dso_local i32 @pubsubUnsubscribeChannel(ptr noundef %0, ptr noundef %1, i32 noundef %2, ptr noundef byval(%struct.pubsubtype) align 8 %3) #0 {
  %5 = alloca ptr, align 8
  %6 = alloca ptr, align 8
  %7 = alloca i32, align 4
  %8 = alloca ptr, align 8
  %9 = alloca ptr, align 8
  %10 = alloca i32, align 4
  %11 = alloca i32, align 4
  store ptr %0, ptr %5, align 8, !tbaa !5
  store ptr %1, ptr %6, align 8, !tbaa !33
  store i32 %2, ptr %7, align 4, !tbaa !69
  call void @llvm.lifetime.start.p0(i64 8, ptr %8) #8
  call void @llvm.lifetime.start.p0(i64 8, ptr %9) #8
  call void @llvm.lifetime.start.p0(i64 4, ptr %10) #8
  store i32 0, ptr %10, align 4, !tbaa !69
  call void @llvm.lifetime.start.p0(i64 4, ptr %11) #8
  store i32 0, ptr %11, align 4, !tbaa !69
  %12 = load ptr, ptr %6, align 8, !tbaa !33
  call void @incrRefCount(ptr noundef %12)
  %13 = getelementptr inbounds nuw %struct.pubsubtype, ptr %3, i32 0, i32 1
  %14 = load ptr, ptr %13, align 8, !tbaa !70
  %15 = load ptr, ptr %5, align 8, !tbaa !5
  %16 = call ptr %14(ptr noundef %15)
  %17 = load ptr, ptr %6, align 8, !tbaa !33
  %18 = call i32 @dictDelete(ptr noundef %16, ptr noundef %17)
  %19 = icmp eq i32 %18, 0
  br i1 %19, label %20, label %87

20:                                               ; preds = %4
  store i32 1, ptr %10, align 4, !tbaa !69
  %21 = load i32, ptr getelementptr inbounds nuw (%struct.redisServer, ptr @server, i32 0, i32 380), align 8, !tbaa !72
  %22 = icmp ne i32 %21, 0
  br i1 %22, label %23, label %32

23:                                               ; preds = %20
  %24 = getelementptr inbounds nuw %struct.pubsubtype, ptr %3, i32 0, i32 0
  %25 = load i32, ptr %24, align 8, !tbaa !73
  %26 = icmp ne i32 %25, 0
  br i1 %26, label %27, label %32

27:                                               ; preds = %23
  %28 = load ptr, ptr %6, align 8, !tbaa !33
  %29 = getelementptr inbounds nuw %struct.redisObject, ptr %28, i32 0, i32 2
  %30 = load ptr, ptr %29, align 8, !tbaa !74
  %31 = call i32 @getKeySlot(ptr noundef %30)
  store i32 %31, ptr %11, align 4, !tbaa !69
  br label %32

32:                                               ; preds = %27, %23, %20
  %33 = getelementptr inbounds nuw %struct.pubsubtype, ptr %3, i32 0, i32 3
  %34 = load ptr, ptr %33, align 8, !tbaa !76
  %35 = load ptr, ptr %34, align 8, !tbaa !77
  %36 = load i32, ptr %11, align 4, !tbaa !69
  %37 = load ptr, ptr %6, align 8, !tbaa !33
  %38 = call ptr @kvstoreDictFind(ptr noundef %35, i32 noundef %36, ptr noundef %37)
  store ptr %38, ptr %8, align 8, !tbaa !78
  %39 = load ptr, ptr %8, align 8, !tbaa !78
  %40 = icmp ne ptr %39, null
  %41 = xor i1 %40, true
  %42 = xor i1 %41, true
  %43 = zext i1 %42 to i32
  %44 = sext i32 %43 to i64
  %45 = call i64 @llvm.expect.i64(i64 %44, i64 1)
  %46 = icmp ne i64 %45, 0
  br i1 %46, label %47, label %48

47:                                               ; preds = %32
  br label %51

48:                                               ; preds = %32
  %49 = load ptr, ptr %5, align 8, !tbaa !5
  call void @_serverAssertWithInfo(ptr noundef %49, ptr noundef null, ptr noundef @.str.3, ptr noundef @.str.1, i32 noundef 291)
  call void @abort() #9
  unreachable

50:                                               ; No predecessors!
  br label %51

51:                                               ; preds = %50, %47
  %52 = load ptr, ptr %8, align 8, !tbaa !78
  %53 = call ptr @dictGetVal(ptr noundef %52)
  store ptr %53, ptr %9, align 8, !tbaa !68
  %54 = load ptr, ptr %9, align 8, !tbaa !68
  %55 = load ptr, ptr %5, align 8, !tbaa !5
  %56 = call i32 @dictDelete(ptr noundef %54, ptr noundef %55)
  %57 = icmp eq i32 %56, 0
  %58 = xor i1 %57, true
  %59 = xor i1 %58, true
  %60 = zext i1 %59 to i32
  %61 = sext i32 %60 to i64
  %62 = call i64 @llvm.expect.i64(i64 %61, i64 1)
  %63 = icmp ne i64 %62, 0
  br i1 %63, label %64, label %65

64:                                               ; preds = %51
  br label %68

65:                                               ; preds = %51
  %66 = load ptr, ptr %5, align 8, !tbaa !5
  call void @_serverAssertWithInfo(ptr noundef %66, ptr noundef null, ptr noundef @.str.4, ptr noundef @.str.1, i32 noundef 293)
  call void @abort() #9
  unreachable

67:                                               ; No predecessors!
  br label %68

68:                                               ; preds = %67, %64
  %69 = load ptr, ptr %9, align 8, !tbaa !68
  %70 = getelementptr inbounds nuw %struct.dict, ptr %69, i32 0, i32 2
  %71 = getelementptr inbounds [2 x i64], ptr %70, i64 0, i64 0
  %72 = load i64, ptr %71, align 8, !tbaa !30
  %73 = load ptr, ptr %9, align 8, !tbaa !68
  %74 = getelementptr inbounds nuw %struct.dict, ptr %73, i32 0, i32 2
  %75 = getelementptr inbounds [2 x i64], ptr %74, i64 0, i64 1
  %76 = load i64, ptr %75, align 8, !tbaa !30
  %77 = add i64 %72, %76
  %78 = icmp eq i64 %77, 0
  br i1 %78, label %79, label %86

79:                                               ; preds = %68
  %80 = getelementptr inbounds nuw %struct.pubsubtype, ptr %3, i32 0, i32 3
  %81 = load ptr, ptr %80, align 8, !tbaa !76
  %82 = load ptr, ptr %81, align 8, !tbaa !77
  %83 = load i32, ptr %11, align 4, !tbaa !69
  %84 = load ptr, ptr %6, align 8, !tbaa !33
  %85 = call i32 @kvstoreDictDelete(ptr noundef %82, i32 noundef %83, ptr noundef %84)
  br label %86

86:                                               ; preds = %79, %68
  br label %87

87:                                               ; preds = %86, %4
  %88 = load i32, ptr %7, align 4, !tbaa !69
  %89 = icmp ne i32 %88, 0
  br i1 %89, label %90, label %93

90:                                               ; preds = %87
  %91 = load ptr, ptr %5, align 8, !tbaa !5
  %92 = load ptr, ptr %6, align 8, !tbaa !33
  call void @addReplyPubsubUnsubscribed(ptr noundef %91, ptr noundef %92, ptr noundef byval(%struct.pubsubtype) align 8 %3)
  br label %93

93:                                               ; preds = %90, %87
  %94 = load ptr, ptr %6, align 8, !tbaa !33
  call void @decrRefCount(ptr noundef %94)
  %95 = load i32, ptr %10, align 4, !tbaa !69
  call void @llvm.lifetime.end.p0(i64 4, ptr %11) #8
  call void @llvm.lifetime.end.p0(i64 4, ptr %10) #8
  call void @llvm.lifetime.end.p0(i64 8, ptr %9) #8
  call void @llvm.lifetime.end.p0(i64 8, ptr %8) #8
  ret i32 %95
}