; Function Attrs: nounwind uwtable
define dso_local range(i32 0, 2) i32 @pubsubUnsubscribeChannel(ptr noundef %0, ptr noundef %1, i32 noundef %2, ptr noundef readonly byval(%struct.pubsubtype) align 8 captures(none) %3) local_unnamed_addr #2 {
  tail call void @incrRefCount(ptr noundef %1) #9
  %5 = getelementptr inbounds nuw i8, ptr %3, i64 8
  %6 = load ptr, ptr %5, align 8, !tbaa !67
  %7 = tail call ptr %6(ptr noundef %0) #9
  %8 = tail call i32 @dictDelete(ptr noundef %7, ptr noundef %1) #9
  %9 = icmp eq i32 %8, 0
  br i1 %9, label %10, label %40

10:                                               ; preds = %4
  %11 = load i32, ptr getelementptr inbounds nuw (i8, ptr @server, i64 7888), align 8, !tbaa !68
  %12 = icmp ne i32 %11, 0
  %13 = load i32, ptr %3, align 8
  %14 = icmp ne i32 %13, 0
  %or.cond = select i1 %12, i1 %14, i1 false
  br i1 %or.cond, label %15, label %19

15:                                               ; preds = %10
  %16 = getelementptr inbounds nuw i8, ptr %1, i64 8
  %17 = load ptr, ptr %16, align 8, !tbaa !69
  %18 = tail call i32 @getKeySlot(ptr noundef %17) #9
  br label %19

19:                                               ; preds = %15, %10
  %.0 = phi i32 [ %18, %15 ], [ 0, %10 ]
  %20 = getelementptr inbounds nuw i8, ptr %3, i64 24
  %21 = load ptr, ptr %20, align 8, !tbaa !71
  %22 = load ptr, ptr %21, align 8, !tbaa !72
  %23 = tail call ptr @kvstoreDictFind(ptr noundef %22, i32 noundef %.0, ptr noundef %1) #9
  %.not = icmp eq ptr %23, null
  br i1 %.not, label %24, label %25, !prof !74

24:                                               ; preds = %19
  tail call void @_serverAssertWithInfo(ptr noundef %0, ptr noundef null, ptr noundef nonnull @.str.3, ptr noundef nonnull @.str.1, i32 noundef 291) #9
  tail call void @abort() #10
  unreachable

25:                                               ; preds = %19
  %26 = tail call ptr @dictGetVal(ptr noundef nonnull %23) #9
  %27 = tail call i32 @dictDelete(ptr noundef %26, ptr noundef %0) #9
  %28 = icmp eq i32 %27, 0
  br i1 %28, label %30, label %29, !prof !75

29:                                               ; preds = %25
  tail call void @_serverAssertWithInfo(ptr noundef %0, ptr noundef null, ptr noundef nonnull @.str.4, ptr noundef nonnull @.str.1, i32 noundef 293) #9
  tail call void @abort() #10
  unreachable

30:                                               ; preds = %25
  %31 = getelementptr inbounds nuw i8, ptr %26, i64 24
  %32 = load i64, ptr %31, align 8, !tbaa !28
  %33 = getelementptr inbounds nuw i8, ptr %26, i64 32
  %34 = load i64, ptr %33, align 8, !tbaa !28
  %35 = sub i64 0, %34
  %36 = icmp eq i64 %32, %35
  br i1 %36, label %37, label %40

37:                                               ; preds = %30
  %38 = load ptr, ptr %21, align 8, !tbaa !72
  %39 = tail call i32 @kvstoreDictDelete(ptr noundef %38, i32 noundef %.0, ptr noundef %1) #9
  br label %40

40:                                               ; preds = %30, %37, %4
  %.022 = phi i32 [ 1, %37 ], [ 1, %30 ], [ 0, %4 ]
  %.not24 = icmp eq i32 %2, 0
  br i1 %.not24, label %addReplyPubsubUnsubscribed.exit, label %41

41:                                               ; preds = %40
  %.sroa.3.0..sroa_idx = getelementptr inbounds nuw i8, ptr %3, i64 16
  %.sroa.3.0.copyload = load ptr, ptr %.sroa.3.0..sroa_idx, align 8
  %.sroa.425.0..sroa_idx = getelementptr inbounds nuw i8, ptr %3, i64 40
  %.sroa.425.0.copyload = load ptr, ptr %.sroa.425.0..sroa_idx, align 8
  %42 = getelementptr inbounds nuw i8, ptr %0, i64 8
  %43 = load i64, ptr %42, align 8, !tbaa !31
  %44 = or i64 %43, 70368744177664
  store i64 %44, ptr %42, align 8, !tbaa !31
  %45 = getelementptr inbounds nuw i8, ptr %0, i64 28
  %46 = load i32, ptr %45, align 4, !tbaa !32
  %47 = icmp eq i32 %46, 2
  br i1 %47, label %48, label %50

48:                                               ; preds = %41
  %49 = load ptr, ptr getelementptr inbounds nuw (i8, ptr @shared, i64 80904), align 8, !tbaa !33
  tail call void @addReply(ptr noundef nonnull %0, ptr noundef %49) #9
  br label %51

50:                                               ; preds = %41
  tail call void @addReplyPushLen(ptr noundef nonnull %0, i64 noundef 3) #9
  br label %51

51:                                               ; preds = %50, %48
  %52 = load ptr, ptr %.sroa.425.0.copyload, align 8, !tbaa !33
  tail call void @addReply(ptr noundef nonnull %0, ptr noundef %52) #9
  %.not.i = icmp eq ptr %1, null
  br i1 %.not.i, label %54, label %53

53:                                               ; preds = %51
  tail call void @addReplyBulk(ptr noundef nonnull %0, ptr noundef nonnull %1) #9
  br label %55

54:                                               ; preds = %51
  tail call void @addReplyNull(ptr noundef nonnull %0) #9
  br label %55

55:                                               ; preds = %54, %53
  %56 = tail call i32 %.sroa.3.0.copyload(ptr noundef nonnull %0) #9
  %57 = sext i32 %56 to i64
  tail call void @addReplyLongLong(ptr noundef nonnull %0, i64 noundef %57) #9
  %58 = and i64 %43, 70368744177664
  %.not13.i = icmp eq i64 %58, 0
  br i1 %.not13.i, label %59, label %addReplyPubsubUnsubscribed.exit

59:                                               ; preds = %55
  %60 = load i64, ptr %42, align 8, !tbaa !31
  %61 = and i64 %60, -70368744177665
  store i64 %61, ptr %42, align 8, !tbaa !31
  br label %addReplyPubsubUnsubscribed.exit

addReplyPubsubUnsubscribed.exit:                  ; preds = %59, %55, %40
  tail call void @decrRefCount(ptr noundef %1) #9
  ret i32 %.022
}